target datalayout = "e-m:e-p270:32:32-p271:32:32-p272:64:64-i64:64-i128:128-f80:128-n8:16:32:64-S128"
target triple = "x86_64-pc-linux-gnu"

%"struct.duckdb_re2::PatchList" = type { i32, i32 }
%"class.duckdb_re2::Compiler" = type <{ %"class.duckdb_re2::Regexp::Walker", ptr, i8, [3 x i8], i32, i8, [7 x i8], %"class.duckdb_re2::PODArray", i32, i32, i64, %"class.std::unordered_map", %"struct.duckdb_re2::Frag", i32, [4 x i8] }>
%"class.duckdb_re2::Regexp::Walker" = type { ptr, %"class.std::stack", i8, i32 }
%"class.std::stack" = type { %"class.std::deque" }
%"class.std::deque" = type { %"class.std::_Deque_base" }
%"class.std::_Deque_base" = type { %"struct.std::_Deque_base<duckdb_re2::WalkState<duckdb_re2::Frag>, std::allocator<duckdb_re2::WalkState<duckdb_re2::Frag>>>::_Deque_impl" }
%"struct.std::_Deque_base<duckdb_re2::WalkState<duckdb_re2::Frag>, std::allocator<duckdb_re2::WalkState<duckdb_re2::Frag>>>::_Deque_impl" = type { %"struct.std::_Deque_base<duckdb_re2::WalkState<duckdb_re2::Frag>, std::allocator<duckdb_re2::WalkState<duckdb_re2::Frag>>>::_Deque_impl_data" }
%"struct.std::_Deque_base<duckdb_re2::WalkState<duckdb_re2::Frag>, std::allocator<duckdb_re2::WalkState<duckdb_re2::Frag>>>::_Deque_impl_data" = type { ptr, i64, %"struct.std::_Deque_iterator", %"struct.std::_Deque_iterator" }
%"struct.std::_Deque_iterator" = type { ptr, ptr, ptr, ptr }
%"class.duckdb_re2::PODArray" = type { %"class.std::unique_ptr" }
%"class.std::unique_ptr" = type { %"struct.std::__uniq_ptr_data" }
%"struct.std::__uniq_ptr_data" = type { %"class.std::__uniq_ptr_impl" }
%"class.std::__uniq_ptr_impl" = type { %"class.std::tuple" }
%"class.std::tuple" = type { %"struct.std::_Tuple_impl" }
%"struct.std::_Tuple_impl" = type { %"struct.std::_Tuple_impl.0", %"struct.std::_Head_base.1" }
%"struct.std::_Tuple_impl.0" = type { %"struct.std::_Head_base" }
%"struct.std::_Head_base" = type { %"struct.duckdb_re2::PODArray<duckdb_re2::Prog::Inst>::Deleter" }
%"struct.duckdb_re2::PODArray<duckdb_re2::Prog::Inst>::Deleter" = type { i32 }
%"struct.std::_Head_base.1" = type { ptr }
%"class.std::unordered_map" = type { %"class.std::_Hashtable" }
%"class.std::_Hashtable" = type { ptr, i64, %"struct.std::__detail::_Hash_node_base", i64, %"struct.std::__detail::_Prime_rehash_policy", ptr }
%"struct.std::__detail::_Hash_node_base" = type { ptr }
%"struct.std::__detail::_Prime_rehash_policy" = type { float, i64 }
%"struct.duckdb_re2::Frag" = type <{ i32, %"struct.duckdb_re2::PatchList", i8, [3 x i8] }>

; Function Attrs: inlinehint mustprogress nounwind uwtable
define linkonce_odr hidden noundef i32 @_ZN10duckdb_re2anENS_6Regexp10ParseFlagsES1_(i32 noundef %0, i32 noundef %1) #6 comdat {
  %3 = alloca i32, align 4
  %4 = alloca i32, align 4
  store i32 %0, ptr %3, align 4, !tbaa !140
  store i32 %1, ptr %4, align 4, !tbaa !140
  %5 = load i32, ptr %3, align 4, !tbaa !140
  %6 = load i32, ptr %4, align 4, !tbaa !140
  %7 = and i32 %5, %6
  ret i32 %7
}

; Function Attrs: mustprogress uwtable
define hidden void @_ZN10duckdb_re28Compiler5SetupENS_6Regexp10ParseFlagsElNS_3RE26AnchorE(ptr noundef nonnull align 8 dereferenceable(228) %0, i32 noundef %1, i64 noundef %2, i32 noundef %3) #0 align 2 {
  %5 = alloca ptr, align 8
  %6 = alloca i32, align 4
  %7 = alloca i64, align 8
  %8 = alloca i32, align 4
  %9 = alloca i64, align 8
  store ptr %0, ptr %5, align 8, !tbaa !3
  store i32 %1, ptr %6, align 4, !tbaa !140
  store i64 %2, ptr %7, align 8, !tbaa !84
  store i32 %3, ptr %8, align 4, !tbaa !148
  %10 = load ptr, ptr %5, align 8
  %11 = load i32, ptr %6, align 4, !tbaa !140
  %12 = call noundef i32 @_ZN10duckdb_re2anENS_6Regexp10ParseFlagsES1_(i32 noundef %11, i32 noundef 32)
  %13 = icmp ne i32 %12, 0
  br i1 %13, label %14, label %16

14:                                               ; preds = %4
  %15 = getelementptr inbounds nuw %"class.duckdb_re2::Compiler", ptr %10, i32 0, i32 4
  store i32 2, ptr %15, align 4, !tbaa !48
  br label %16

16:                                               ; preds = %14, %4
  %17 = load i64, ptr %7, align 8, !tbaa !84
  %18 = getelementptr inbounds nuw %"class.duckdb_re2::Compiler", ptr %10, i32 0, i32 10
  store i64 %17, ptr %18, align 8, !tbaa !52
  %19 = load i64, ptr %7, align 8, !tbaa !84
  %20 = icmp sle i64 %19, 0
  br i1 %20, label %21, label %23

21:                                               ; preds = %16
  %22 = getelementptr inbounds nuw %"class.duckdb_re2::Compiler", ptr %10, i32 0, i32 9
  store i32 100000, ptr %22, align 4, !tbaa !51
  br label %44

23:                                               ; preds = %16
  %24 = load i64, ptr %7, align 8, !tbaa !84
  %25 = icmp ule i64 %24, 432
  br i1 %25, label %26, label %28

26:                                               ; preds = %23
  %27 = getelementptr inbounds nuw %"class.duckdb_re2::Compiler", ptr %10, i32 0, i32 9
  store i32 0, ptr %27, align 4, !tbaa !51
  br label %43

28:                                               ; preds = %23
  call void @llvm.lifetime.start.p0(i64 8, ptr %9) #18
  %29 = load i64, ptr %7, align 8, !tbaa !84
  %30 = sub i64 %29, 432
  %31 = udiv i64 %30, 8
  store i64 %31, ptr %9, align 8, !tbaa !84
  %32 = load i64, ptr %9, align 8, !tbaa !84
  %33 = icmp sge i64 %32, 16777216
  br i1 %33, label %34, label %35

34:                                               ; preds = %28
  store i64 16777216, ptr %9, align 8, !tbaa !84
  br label %35

35:                                               ; preds = %34, %28
  %36 = load i64, ptr %9, align 8, !tbaa !84
  %37 = icmp sgt i64 %36, 268435455
  br i1 %37, label %38, label %39

38:                                               ; preds = %35
  store i64 268435455, ptr %9, align 8, !tbaa !84
  br label %39

39:                                               ; preds = %38, %35
  %40 = load i64, ptr %9, align 8, !tbaa !84
  %41 = trunc i64 %40 to i32
  %42 = getelementptr inbounds nuw %"class.duckdb_re2::Compiler", ptr %10, i32 0, i32 9
  store i32 %41, ptr %42, align 4, !tbaa !51
  call void @llvm.lifetime.end.p0(i64 8, ptr %9) #18
  br label %43

43:                                               ; preds = %39, %26
  br label %44

44:                                               ; preds = %43, %21
  %45 = load i32, ptr %8, align 4, !tbaa !148
  %46 = getelementptr inbounds nuw %"class.duckdb_re2::Compiler", ptr %10, i32 0, i32 13
  store i32 %45, ptr %46, align 8, !tbaa !125
  ret void
}