; Function Attrs: mustprogress nofree norecurse nosync nounwind willreturn memory(argmem: write) uwtable
define hidden void @_ZN10duckdb_re28Compiler5SetupENS_6Regexp10ParseFlagsElNS_3RE26AnchorE(ptr noundef nonnull writeonly align 8 captures(none) dereferenceable(228) initializes((140, 152), (224, 228)) %0, i32 noundef %1, i64 noundef %2, i32 noundef %3) local_unnamed_addr #14 align 2 {
  %5 = and i32 %1, 32
  %.not = icmp eq i32 %5, 0
  br i1 %.not, label %8, label %6

6:                                                ; preds = %4
  %7 = getelementptr inbounds nuw i8, ptr %0, i64 108
  store i32 2, ptr %7, align 4, !tbaa !50
  br label %8

8:                                                ; preds = %6, %4
  %9 = getelementptr inbounds nuw i8, ptr %0, i64 144
  store i64 %2, ptr %9, align 8, !tbaa !54
  %10 = icmp slt i64 %2, 1
  br i1 %10, label %17, label %11

11:                                               ; preds = %8
  %12 = icmp samesign ult i64 %2, 433
  br i1 %12, label %17, label %13

13:                                               ; preds = %11
  %14 = add nsw i64 %2, -432
  %15 = tail call i64 @llvm.umin.i64(i64 %14, i64 134217728)
  %spec.store.select = lshr i64 %15, 3
  %16 = trunc nuw nsw i64 %spec.store.select to i32
  br label %17

17:                                               ; preds = %11, %8, %13
  %.sink = phi i32 [ %16, %13 ], [ 100000, %8 ], [ 0, %11 ]
  %18 = getelementptr inbounds nuw i8, ptr %0, i64 140
  store i32 %.sink, ptr %18, align 4, !tbaa !53
  %19 = getelementptr inbounds nuw i8, ptr %0, i64 224
  store i32 %3, ptr %19, align 8, !tbaa !111
  ret void
}